target datalayout = "e-m:e-p270:32:32-p271:32:32-p272:64:64-i64:64-i128:128-f80:128-n8:16:32:64-S128"
target triple = "x86_64-pc-linux-gnu"

%class.LibRaw = type { ptr, %struct.libraw_data_t, ptr, %struct.libraw_internal_data_t, [2048 x %struct.decode], ptr, ptr, [10 x %struct.tiff_ifd_t], %class.libraw_memmgr, %struct.libraw_callbacks_t, { i64, i64 }, { i64, i64 }, { i64, i64 }, ptr, ptr, ptr, i64, ptr, ptr, ptr, ptr }
%struct.libraw_data_t = type { ptr, %struct.libraw_image_sizes_t, %struct.libraw_iparams_t, %struct.libraw_lensinfo_t, %struct.libraw_makernotes_t, %struct.libraw_shootinginfo_t, %struct.libraw_output_params_t, %struct.libraw_raw_unpack_params_t, i32, i32, %struct.libraw_colordata_t, %struct.libraw_imgother_t, %struct.libraw_thumbnail_t, %struct.libraw_thumbnail_list_t, %struct.libraw_rawdata_t, ptr }
%struct.libraw_image_sizes_t = type { i16, i16, i16, i16, i16, i16, i16, i16, i32, double, i32, [8 x [4 x i32]], i16, [2 x %struct.libraw_raw_inset_crop_t] }
%struct.libraw_raw_inset_crop_t = type { i16, i16, i16, i16 }
%struct.libraw_iparams_t = type { [4 x i8], [64 x i8], [64 x i8], [64 x i8], [64 x i8], [64 x i8], i32, i32, i32, i32, i32, i32, [6 x [6 x i8]], [6 x [6 x i8]], [5 x i8], i32, ptr }
%struct.libraw_lensinfo_t = type { float, float, float, float, float, [128 x i8], [128 x i8], [128 x i8], [128 x i8], i16, %struct.libraw_nikonlens_t, %struct.libraw_dnglens_t, %struct.libraw_makernotes_lens_t }
%struct.libraw_nikonlens_t = type { float, i8, i8, i8, i8 }
%struct.libraw_dnglens_t = type { float, float, float, float }
%struct.libraw_makernotes_lens_t = type { i64, [128 x i8], i16, i16, i64, i16, i16, [64 x i8], i16, [16 x i8], [16 x i8], float, float, float, float, float, float, float, float, float, float, float, float, float, float, float, i64, [128 x i8], i64, [128 x i8], i64, [128 x i8], i16, float }
%struct.libraw_makernotes_t = type { %struct.libraw_canon_makernotes_t, %struct.libraw_nikon_makernotes_t, %struct.libraw_hasselblad_makernotes_t, %struct.libraw_fuji_info_t, %struct.libraw_olympus_makernotes_t, %struct.libraw_sony_info_t, %struct.libraw_kodak_makernotes_t, %struct.libraw_panasonic_makernotes_t, %struct.libraw_pentax_makernotes_t, %struct.libraw_p1_makernotes_t, %struct.libraw_ricoh_makernotes_t, %struct.libraw_samsung_makernotes_t, %struct.libraw_metadata_common_t }
%struct.libraw_canon_makernotes_t = type { i32, i32, i32, i32, [4 x i32], i32, [4 x i32], i16, i16, i8, i16, i16, i16, i16, i16, i16, i16, i16, i16, i16, i16, i16, i16, i32, float, i16, i16, i16, i32, i16, i32, i32, i16, i32, %struct.libraw_area_t, %struct.libraw_area_t, %struct.libraw_area_t, %struct.libraw_area_t, %struct.libraw_area_t, [2 x i16] }
%struct.libraw_area_t = type { i16, i16, i16, i16 }
%struct.libraw_nikon_makernotes_t = type { double, i16, i16, [7 x i8], i8, i8, [13 x i8], [20 x i8], [4 x i8], [4 x i8], [4 x i8], i8, i8, i8, i8, i8, [2 x i8], i8, i8, i8, i8, i8, [4 x i8], [4 x i8], i8, i16, i32, i32, i32, i32, [4 x double], i8, i8, i8, i32, i32, i32, i8, [4 x i16], i16, %struct.libraw_sensor_highspeed_crop_t, i16, i16, i16, i32, [20 x i8], [20 x i8], i32, i16, double, double, double }
%struct.libraw_sensor_highspeed_crop_t = type { i16, i16, i16, i16 }
%struct.libraw_hasselblad_makernotes_t = type { i32, double, [8 x i8], [64 x i8], [64 x i8], i32, i32, i32, i32, [32 x i8], [64 x i8], i32, [2 x i32], [2 x i32], [4 x [3 x double]] }
%struct.libraw_fuji_info_t = type { float, i16, i16, i16, i16, i16, i16, i16, i16, [33 x i8], [33 x i8], float, i16, i16, [2 x i16], i16, i32, i32, i16, [3 x i16], i16, i16, i16, i16, i16, i32, i16, [13 x i8], [5 x i8], [5 x i8], i32, i16, i32, i16, [9 x i16], [32 x i32], i32, i32, i32, [2 x float], i32 }
%struct.libraw_olympus_makernotes_t = type { [6 x i8], i16, [2 x i32], [5 x i16], i16, [2 x i16], i16, i16, [64 x i32], [5 x double], i16, i8, [3 x i16], [3 x i32], i16, i16, i16, i16, double, [4 x i16], [2 x i32], i8, i32, i16, i16 }
%struct.libraw_sony_info_t = type { i16, i8, i8, i32, i8, i32, i8, i8, i16, [2 x i16], i8, i8, i16, [10 x i8], i8, i8, [4 x i16], i16, i8, i8, i8, i16, i32, i16, [2 x i16], i16, i16, i16, i16, i16, i16, i16, i32, float, i16, i32, i32, i16, [20 x i8], i32, i16, i32, i8, i8, i16, i16, i16, i16, i16, i16, i16, i16, i16, i32, i16, [16 x i8], float }
%struct.libraw_kodak_makernotes_t = type { i16, i16, i16, i16, i16, i16, [3 x [3 x float]], [3 x [3 x float]], [3 x [3 x float]], [3 x [3 x float]], [3 x [3 x float]], [3 x [3 x float]], i16, i16, i16, i16, float, float }
%struct.libraw_panasonic_makernotes_t = type { i16, i16, [8 x float], i32, float, [3 x i32], i16, i16, i32, i32 }
%struct.libraw_pentax_makernotes_t = type { [4 x i8], [2 x i16], [2 x i16], i16, i32, i32, i16, i16, i8, i8, i16 }
%struct.libraw_p1_makernotes_t = type { [64 x i8], [64 x i8], [256 x i8], [64 x i8] }
%struct.libraw_ricoh_makernotes_t = type { i16, [2 x i32], [2 x i32], i16, i32, i32, i32, i32, i16, i16, i16, i16, i16, i16, double, double }
%struct.libraw_samsung_makernotes_t = type { [4 x i32], [4 x i32], [2 x i32], [11 x i32], double, i32, [32 x i8] }
%struct.libraw_metadata_common_t = type { float, float, float, float, float, float, float, float, float, float, float, float, float, float, float, float, i16, [128 x i8], float, [4 x %struct.libraw_afinfo_item_t], i32 }
%struct.libraw_afinfo_item_t = type { i32, i16, i32, i32, ptr }
%struct.libraw_shootinginfo_t = type { i16, i16, i16, i16, i16, i16, i16, [64 x i8], [64 x i8] }
%struct.libraw_output_params_t = type { [4 x i32], [4 x i32], [4 x double], [6 x double], [4 x float], float, float, i32, i32, i32, i32, i32, i32, i32, ptr, ptr, ptr, ptr, i32, i32, i32, i32, i32, i32, [4 x i32], i32, i32, float, float, i32, i32, i32, i32, i32, i32, i32, i32, float, float, i32, i32 }
%struct.libraw_raw_unpack_params_t = type { i32, i32, i32, i32, i32, i32, i32, float, [5 x i8], ptr }
%struct.libraw_colordata_t = type { [65536 x i16], [4104 x i32], i32, i32, i32, [4 x i64], float, float, [8 x [8 x i16]], [4 x float], [4 x float], [3 x [4 x float]], [3 x [4 x float]], [3 x [4 x float]], [4 x [3 x float]], %struct.ph1_t, float, float, [64 x i8], [64 x i8], [64 x i8], [64 x i8], [17 x i8], [64 x i8], ptr, i32, [8 x i32], [2 x %struct.libraw_dng_color_t], %struct.libraw_dng_levels_t, [256 x [4 x i32]], [64 x [5 x float]], i32, [2 x %struct.libraw_P1_color_t], i32, i32 }
%struct.ph1_t = type { i32, i32, i32, i32, i32, i32, i32, i32, float }
%struct.libraw_dng_color_t = type { i32, i16, [4 x [4 x float]], [4 x [3 x float]], [3 x [4 x float]] }
%struct.libraw_dng_levels_t = type { i32, [4104 x i32], i32, [4104 x float], float, [4 x i32], [4 x i16], [4 x float], i32, [4 x float], [4 x float], float, float }
%struct.libraw_P1_color_t = type { [9 x float] }
%struct.libraw_imgother_t = type { float, float, float, float, i64, i32, [32 x i32], %struct.libraw_gps_info_t, [512 x i8], [64 x i8], [4 x float] }
%struct.libraw_gps_info_t = type { [3 x float], [3 x float], [3 x float], float, i8, i8, i8, i8, i8 }
%struct.libraw_thumbnail_t = type { i32, i16, i16, i32, i32, ptr }
%struct.libraw_thumbnail_list_t = type { i32, [8 x %struct.libraw_thumbnail_item_t] }
%struct.libraw_thumbnail_item_t = type { i32, i16, i16, i16, i32, i32, i64 }
%struct.libraw_rawdata_t = type { ptr, ptr, ptr, ptr, ptr, ptr, ptr, ptr, ptr, %struct.libraw_iparams_t, %struct.libraw_image_sizes_t, %struct.libraw_internal_output_params_t, %struct.libraw_colordata_t }
%struct.libraw_internal_output_params_t = type { i32, i32, i32, i16, i16 }
%struct.libraw_internal_data_t = type { %struct.internal_data_t, %struct.libraw_internal_output_params_t, %struct.output_data_t, %struct.identify_data_t, %struct.unpacker_data_t }
%struct.internal_data_t = type { ptr, ptr, i32, ptr, i64, i64, [4 x i32] }
%struct.output_data_t = type { ptr, ptr }
%struct.identify_data_t = type { i32, i64, i64, i32, i32, i32 }
%struct.unpacker_data_t = type { i16, [4 x i16], [3 x i16], i32, i64, i64, i64, i64, i64, i64, i32, i32, i32, i32, i32, i32, i32, i32, i32, i32, i32, i32, i32, i32, i32, i32, i32, i64, i32, i32, i32, i32, i32, i32, i32, i32, i32, %struct.pana8_tags_t, [16 x %struct.crx_data_header_t], i32, i32, i16, i16, i32, i32, i32, i32, i32, i32, i32, [20 x i32], i16 }
%struct.pana8_tags_t = type { [6 x i32], [6 x i16], i16, [4 x i16], [17 x i16], [17 x i16], [17 x i16], i16, i16, [5 x i64], [5 x i16], [5 x i32], [5 x i16], [5 x i16] }
%struct.crx_data_header_t = type { i32, i32, i32, i32, i32, i32, i32, i32, i32, i32, i32, i32, i32, i32, i32, i64, i32, ptr, i32, i32, i32, ptr, i32, ptr }
%struct.decode = type { [2 x ptr], i32 }
%struct.tiff_ifd_t = type { i32, i32, i32, i32, i32, i32, i32, i32, i32, i32, i32, i32, i32, i32, i32, ptr, i32, ptr, i32, i32, i32, i32, i32, i32, i32, float, i64, i64, i32, [2 x %struct.libraw_dng_color_t], %struct.libraw_dng_levels_t, i32 }
%class.libraw_memmgr = type <{ ptr, i32, [4 x i8] }>
%struct.libraw_callbacks_t = type { ptr, ptr, ptr, ptr, ptr, ptr, ptr, ptr, ptr, ptr, ptr, ptr, ptr, ptr, ptr, ptr, ptr }

; Function Attrs: mustprogress uwtable
define void @_ZN6LibRaw20kodak_65000_load_rawEv(ptr noundef nonnull align 8 dereferenceable(767680) %0) #0 align 2 {
  %2 = alloca ptr, align 8
  %3 = alloca [272 x i16], align 16
  %4 = alloca i32, align 4
  %5 = alloca i32, align 4
  %6 = alloca i32, align 4
  %7 = alloca [2 x i32], align 4
  %8 = alloca i32, align 4
  %9 = alloca i32, align 4
  %10 = alloca i32, align 4
  store ptr %0, ptr %2, align 8, !tbaa !6
  %11 = load ptr, ptr %2, align 8
  call void @llvm.lifetime.start.p0(i64 544, ptr %3) #13
  call void @llvm.lifetime.start.p0(i64 4, ptr %4) #13
  call void @llvm.lifetime.start.p0(i64 4, ptr %5) #13
  call void @llvm.lifetime.start.p0(i64 4, ptr %6) #13
  call void @llvm.lifetime.start.p0(i64 8, ptr %7) #13
  call void @llvm.lifetime.start.p0(i64 4, ptr %8) #13
  call void @llvm.lifetime.start.p0(i64 4, ptr %9) #13
  store i32 0, ptr %4, align 4, !tbaa !80
  br label %12

12:                                               ; preds = %126, %1
  %13 = load i32, ptr %4, align 4, !tbaa !80
  %14 = getelementptr inbounds nuw %class.LibRaw, ptr %11, i32 0, i32 1
  %15 = getelementptr inbounds nuw %struct.libraw_data_t, ptr %14, i32 0, i32 1
  %16 = getelementptr inbounds nuw %struct.libraw_image_sizes_t, ptr %15, i32 0, i32 2
  %17 = load i16, ptr %16, align 4, !tbaa !74
  %18 = zext i16 %17 to i32
  %19 = icmp slt i32 %13, %18
  br i1 %19, label %20, label %129

20:                                               ; preds = %12
  call void @_ZN6LibRaw11checkCancelEv(ptr noundef nonnull align 8 dereferenceable(767680) %11)
  store i32 0, ptr %5, align 4, !tbaa !80
  br label %21

21:                                               ; preds = %122, %20
  %22 = load i32, ptr %5, align 4, !tbaa !80
  %23 = getelementptr inbounds nuw %class.LibRaw, ptr %11, i32 0, i32 1
  %24 = getelementptr inbounds nuw %struct.libraw_data_t, ptr %23, i32 0, i32 1
  %25 = getelementptr inbounds nuw %struct.libraw_image_sizes_t, ptr %24, i32 0, i32 3
  %26 = load i16, ptr %25, align 2, !tbaa !11
  %27 = zext i16 %26 to i32
  %28 = icmp slt i32 %22, %27
  br i1 %28, label %29, label %125

29:                                               ; preds = %21
  %30 = getelementptr inbounds [2 x i32], ptr %7, i64 0, i64 1
  store i32 0, ptr %30, align 4, !tbaa !80
  %31 = getelementptr inbounds [2 x i32], ptr %7, i64 0, i64 0
  store i32 0, ptr %31, align 4, !tbaa !80
  %32 = getelementptr inbounds nuw %class.LibRaw, ptr %11, i32 0, i32 1
  %33 = getelementptr inbounds nuw %struct.libraw_data_t, ptr %32, i32 0, i32 1
  %34 = getelementptr inbounds nuw %struct.libraw_image_sizes_t, ptr %33, i32 0, i32 3
  %35 = load i16, ptr %34, align 2, !tbaa !11
  %36 = zext i16 %35 to i32
  %37 = load i32, ptr %5, align 4, !tbaa !80
  %38 = sub nsw i32 %36, %37
  %39 = icmp slt i32 256, %38
  br i1 %39, label %40, label %41

40:                                               ; preds = %29
  br label %49

41:                                               ; preds = %29
  %42 = getelementptr inbounds nuw %class.LibRaw, ptr %11, i32 0, i32 1
  %43 = getelementptr inbounds nuw %struct.libraw_data_t, ptr %42, i32 0, i32 1
  %44 = getelementptr inbounds nuw %struct.libraw_image_sizes_t, ptr %43, i32 0, i32 3
  %45 = load i16, ptr %44, align 2, !tbaa !11
  %46 = zext i16 %45 to i32
  %47 = load i32, ptr %5, align 4, !tbaa !80
  %48 = sub nsw i32 %46, %47
  br label %49

49:                                               ; preds = %41, %40
  %50 = phi i32 [ 256, %40 ], [ %48, %41 ]
  store i32 %50, ptr %6, align 4, !tbaa !80
  %51 = getelementptr inbounds [272 x i16], ptr %3, i64 0, i64 0
  %52 = load i32, ptr %6, align 4, !tbaa !80
  %53 = call noundef i32 @_ZN6LibRaw18kodak_65000_decodeEPsi(ptr noundef nonnull align 8 dereferenceable(767680) %11, ptr noundef %51, i32 noundef %52)
  store i32 %53, ptr %8, align 4, !tbaa !80
  store i32 0, ptr %9, align 4, !tbaa !80
  br label %54

54:                                               ; preds = %118, %49
  %55 = load i32, ptr %9, align 4, !tbaa !80
  %56 = load i32, ptr %6, align 4, !tbaa !80
  %57 = icmp slt i32 %55, %56
  br i1 %57, label %58, label %121

58:                                               ; preds = %54
  call void @llvm.lifetime.start.p0(i64 4, ptr %10) #13
  %59 = load i32, ptr %8, align 4, !tbaa !80
  %60 = icmp ne i32 %59, 0
  br i1 %60, label %61, label %67

61:                                               ; preds = %58
  %62 = load i32, ptr %9, align 4, !tbaa !80
  %63 = sext i32 %62 to i64
  %64 = getelementptr inbounds [272 x i16], ptr %3, i64 0, i64 %63
  %65 = load i16, ptr %64, align 2, !tbaa !78
  %66 = sext i16 %65 to i32
  br label %79

67:                                               ; preds = %58
  %68 = load i32, ptr %9, align 4, !tbaa !80
  %69 = sext i32 %68 to i64
  %70 = getelementptr inbounds [272 x i16], ptr %3, i64 0, i64 %69
  %71 = load i16, ptr %70, align 2, !tbaa !78
  %72 = sext i16 %71 to i32
  %73 = load i32, ptr %9, align 4, !tbaa !80
  %74 = and i32 %73, 1
  %75 = sext i32 %74 to i64
  %76 = getelementptr inbounds [2 x i32], ptr %7, i64 0, i64 %75
  %77 = load i32, ptr %76, align 4, !tbaa !80
  %78 = add nsw i32 %77, %72
  store i32 %78, ptr %76, align 4, !tbaa !80
  br label %79

79:                                               ; preds = %67, %61
  %80 = phi i32 [ %66, %61 ], [ %78, %67 ]
  store i32 %80, ptr %10, align 4, !tbaa !80
  %81 = load i32, ptr %10, align 4, !tbaa !80
  %82 = icmp sge i32 %81, 0
  br i1 %82, label %83, label %116

83:                                               ; preds = %79
  %84 = load i32, ptr %10, align 4, !tbaa !80
  %85 = icmp slt i32 %84, 65535
  br i1 %85, label %86, label %116

86:                                               ; preds = %83
  %87 = getelementptr inbounds nuw %class.LibRaw, ptr %11, i32 0, i32 1
  %88 = getelementptr inbounds nuw %struct.libraw_data_t, ptr %87, i32 0, i32 10
  %89 = getelementptr inbounds nuw %struct.libraw_colordata_t, ptr %88, i32 0, i32 0
  %90 = load i32, ptr %10, align 4, !tbaa !80
  %91 = sext i32 %90 to i64
  %92 = getelementptr inbounds [65536 x i16], ptr %89, i64 0, i64 %91
  %93 = load i16, ptr %92, align 2, !tbaa !78
  %94 = getelementptr inbounds nuw %class.LibRaw, ptr %11, i32 0, i32 1
  %95 = getelementptr inbounds nuw %struct.libraw_data_t, ptr %94, i32 0, i32 14
  %96 = getelementptr inbounds nuw %struct.libraw_rawdata_t, ptr %95, i32 0, i32 1
  %97 = load ptr, ptr %96, align 8, !tbaa !103
  %98 = load i32, ptr %4, align 4, !tbaa !80
  %99 = getelementptr inbounds nuw %class.LibRaw, ptr %11, i32 0, i32 1
  %100 = getelementptr inbounds nuw %struct.libraw_data_t, ptr %99, i32 0, i32 1
  %101 = getelementptr inbounds nuw %struct.libraw_image_sizes_t, ptr %100, i32 0, i32 1
  %102 = load i16, ptr %101, align 2, !tbaa !73
  %103 = zext i16 %102 to i32
  %104 = mul nsw i32 %98, %103
  %105 = load i32, ptr %5, align 4, !tbaa !80
  %106 = load i32, ptr %9, align 4, !tbaa !80
  %107 = add nsw i32 %105, %106
  %108 = add nsw i32 %104, %107
  %109 = sext i32 %108 to i64
  %110 = getelementptr inbounds i16, ptr %97, i64 %109
  store i16 %93, ptr %110, align 2, !tbaa !78
  %111 = zext i16 %93 to i32
  %112 = ashr i32 %111, 12
  %113 = icmp ne i32 %112, 0
  br i1 %113, label %114, label %115

114:                                              ; preds = %86
  call void @_ZN6LibRaw6derrorEv(ptr noundef nonnull align 8 dereferenceable(767680) %11)
  br label %115

115:                                              ; preds = %114, %86
  br label %117

116:                                              ; preds = %83, %79
  call void @_ZN6LibRaw6derrorEv(ptr noundef nonnull align 8 dereferenceable(767680) %11)
  br label %117

117:                                              ; preds = %116, %115
  call void @llvm.lifetime.end.p0(i64 4, ptr %10) #13
  br label %118

118:                                              ; preds = %117
  %119 = load i32, ptr %9, align 4, !tbaa !80
  %120 = add nsw i32 %119, 1
  store i32 %120, ptr %9, align 4, !tbaa !80
  br label %54, !llvm.loop !189

121:                                              ; preds = %54
  br label %122

122:                                              ; preds = %121
  %123 = load i32, ptr %5, align 4, !tbaa !80
  %124 = add nsw i32 %123, 256
  store i32 %124, ptr %5, align 4, !tbaa !80
  br label %21, !llvm.loop !190

125:                                              ; preds = %21
  br label %126

126:                                              ; preds = %125
  %127 = load i32, ptr %4, align 4, !tbaa !80
  %128 = add nsw i32 %127, 1
  store i32 %128, ptr %4, align 4, !tbaa !80
  br label %12, !llvm.loop !191

129:                                              ; preds = %12
  call void @llvm.lifetime.end.p0(i64 4, ptr %9) #13
  call void @llvm.lifetime.end.p0(i64 4, ptr %8) #13
  call void @llvm.lifetime.end.p0(i64 8, ptr %7) #13
  call void @llvm.lifetime.end.p0(i64 4, ptr %6) #13
  call void @llvm.lifetime.end.p0(i64 4, ptr %5) #13
  call void @llvm.lifetime.end.p0(i64 4, ptr %4) #13
  call void @llvm.lifetime.end.p0(i64 544, ptr %3) #13
  ret void
}