; Function Attrs: mustprogress uwtable
define void @_ZN6LibRaw20kodak_65000_load_rawEv(ptr noundef nonnull align 8 dereferenceable(767680) %0) local_unnamed_addr #0 align 2 {
  %2 = alloca [272 x i16], align 16
  %3 = alloca [2 x i32], align 4
  call void @llvm.lifetime.start.p0(i64 544, ptr nonnull %2) #12
  call void @llvm.lifetime.start.p0(i64 8, ptr nonnull %3) #12
  %4 = getelementptr inbounds nuw i8, ptr %0, i64 20
  %5 = load i16, ptr %4, align 4, !tbaa !72
  %.not36 = icmp eq i16 %5, 0
  br i1 %.not36, label %._crit_edge35, label %.lr.ph34

.lr.ph34:                                         ; preds = %1
  %6 = getelementptr inbounds nuw i8, ptr %0, i64 22
  %7 = getelementptr inbounds nuw i8, ptr %3, i64 4
  %8 = getelementptr inbounds nuw i8, ptr %0, i64 5504
  %9 = getelementptr inbounds nuw i8, ptr %0, i64 193648
  %10 = getelementptr inbounds nuw i8, ptr %0, i64 18
  br label %11

11:                                               ; preds = %.lr.ph34, %._crit_edge31
  %.032 = phi i32 [ 0, %.lr.ph34 ], [ %59, %._crit_edge31 ]
  tail call void @_ZN6LibRaw11checkCancelEv(ptr noundef nonnull align 8 dereferenceable(767680) %0)
  %12 = load i16, ptr %6, align 2, !tbaa !6
  %.not37 = icmp eq i16 %12, 0
  br i1 %.not37, label %._crit_edge31, label %.lr.ph30

.lr.ph30:                                         ; preds = %11, %._crit_edge
  %indvars.iv44 = phi i64 [ %indvars.iv.next45, %._crit_edge ], [ 0, %11 ]
  %.in = phi i16 [ %56, %._crit_edge ], [ %12, %11 ]
  %13 = zext i16 %.in to i32
  store i32 0, ptr %7, align 4, !tbaa !142
  store i32 0, ptr %3, align 4, !tbaa !142
  %14 = trunc nuw nsw i64 %indvars.iv44 to i32
  %15 = sub nuw nsw i32 %13, %14
  %spec.select = tail call i32 @llvm.umin.i32(i32 %15, i32 256)
  %16 = call noundef i32 @_ZN6LibRaw18kodak_65000_decodeEPsi(ptr noundef nonnull align 8 dereferenceable(767680) %0, ptr noundef nonnull %2, i32 noundef %spec.select)
  %17 = zext i16 %.in to i64
  %.not38 = icmp eq i64 %indvars.iv44, %17
  br i1 %.not38, label %._crit_edge, label %.lr.ph

.lr.ph:                                           ; preds = %.lr.ph30
  %.not = icmp eq i32 %16, 0
  %18 = zext nneg i32 %spec.select to i64
  br i1 %.not, label %.lr.ph.split.us, label %.lr.ph.split

.lr.ph.split.us:                                  ; preds = %.lr.ph, %38
  %indvars.iv41 = phi i64 [ %indvars.iv.next42, %38 ], [ 0, %.lr.ph ]
  %19 = getelementptr inbounds nuw [272 x i16], ptr %2, i64 0, i64 %indvars.iv41
  %20 = load i16, ptr %19, align 2, !tbaa !75
  %21 = sext i16 %20 to i32
  %22 = and i64 %indvars.iv41, 1
  %23 = getelementptr inbounds nuw [2 x i32], ptr %3, i64 0, i64 %22
  %24 = load i32, ptr %23, align 4, !tbaa !142
  %25 = add nsw i32 %24, %21
  store i32 %25, ptr %23, align 4, !tbaa !142
  %or.cond.us = icmp ult i32 %25, 65535
  br i1 %or.cond.us, label %26, label %.sink.split

26:                                               ; preds = %.lr.ph.split.us
  %27 = zext nneg i32 %25 to i64
  %28 = getelementptr inbounds nuw [65536 x i16], ptr %8, i64 0, i64 %27
  %29 = load i16, ptr %28, align 2, !tbaa !75
  %30 = load ptr, ptr %9, align 8, !tbaa !86
  %31 = load i16, ptr %10, align 2, !tbaa !71
  %32 = zext i16 %31 to i32
  %33 = mul nuw nsw i32 %.032, %32
  %34 = zext nneg i32 %33 to i64
  %35 = getelementptr inbounds nuw i16, ptr %30, i64 %indvars.iv41
  %36 = getelementptr inbounds nuw i16, ptr %35, i64 %indvars.iv44
  %37 = getelementptr inbounds nuw i16, ptr %36, i64 %34
  store i16 %29, ptr %37, align 2, !tbaa !75
  %.not25.us = icmp ult i16 %29, 4096
  br i1 %.not25.us, label %38, label %.sink.split

.sink.split:                                      ; preds = %26, %.lr.ph.split.us
  tail call void @_ZN6LibRaw6derrorEv(ptr noundef nonnull align 8 dereferenceable(767680) %0)
  br label %38

38:                                               ; preds = %.sink.split, %26
  %indvars.iv.next42 = add nuw nsw i64 %indvars.iv41, 1
  %39 = icmp samesign ult i64 %indvars.iv.next42, %18
  br i1 %39, label %.lr.ph.split.us, label %._crit_edge, !llvm.loop !166

.lr.ph.split:                                     ; preds = %.lr.ph, %54
  %indvars.iv = phi i64 [ %indvars.iv.next, %54 ], [ 0, %.lr.ph ]
  %40 = getelementptr inbounds nuw [272 x i16], ptr %2, i64 0, i64 %indvars.iv
  %41 = load i16, ptr %40, align 2, !tbaa !75
  %or.cond = icmp sgt i16 %41, -1
  br i1 %or.cond, label %42, label %.sink.split48

42:                                               ; preds = %.lr.ph.split
  %43 = zext nneg i16 %41 to i64
  %44 = getelementptr inbounds nuw [65536 x i16], ptr %8, i64 0, i64 %43
  %45 = load i16, ptr %44, align 2, !tbaa !75
  %46 = load ptr, ptr %9, align 8, !tbaa !86
  %47 = load i16, ptr %10, align 2, !tbaa !71
  %48 = zext i16 %47 to i32
  %49 = mul nuw nsw i32 %.032, %48
  %50 = zext nneg i32 %49 to i64
  %51 = getelementptr inbounds nuw i16, ptr %46, i64 %indvars.iv
  %52 = getelementptr inbounds nuw i16, ptr %51, i64 %indvars.iv44
  %53 = getelementptr inbounds nuw i16, ptr %52, i64 %50
  store i16 %45, ptr %53, align 2, !tbaa !75
  %.not25 = icmp ult i16 %45, 4096
  br i1 %.not25, label %54, label %.sink.split48

.sink.split48:                                    ; preds = %.lr.ph.split, %42
  tail call void @_ZN6LibRaw6derrorEv(ptr noundef nonnull align 8 dereferenceable(767680) %0)
  br label %54

54:                                               ; preds = %.sink.split48, %42
  %indvars.iv.next = add nuw nsw i64 %indvars.iv, 1
  %55 = icmp samesign ult i64 %indvars.iv.next, %18
  br i1 %55, label %.lr.ph.split, label %._crit_edge, !llvm.loop !166

._crit_edge:                                      ; preds = %54, %38, %.lr.ph30
  %indvars.iv.next45 = add nuw nsw i64 %indvars.iv44, 256
  %56 = load i16, ptr %6, align 2, !tbaa !6
  %57 = zext i16 %56 to i64
  %58 = icmp samesign ult i64 %indvars.iv.next45, %57
  br i1 %58, label %.lr.ph30, label %._crit_edge31, !llvm.loop !167

._crit_edge31:                                    ; preds = %._crit_edge, %11
  %59 = add nuw nsw i32 %.032, 1
  %60 = load i16, ptr %4, align 4, !tbaa !72
  %61 = zext i16 %60 to i32
  %62 = icmp samesign ult i32 %59, %61
  br i1 %62, label %11, label %._crit_edge35, !llvm.loop !168

._crit_edge35:                                    ; preds = %._crit_edge31, %1
  call void @llvm.lifetime.end.p0(i64 8, ptr nonnull %3) #12
  call void @llvm.lifetime.end.p0(i64 544, ptr nonnull %2) #12
  ret void
}